target datalayout = "e-m:e-p270:32:32-p271:32:32-p272:64:64-i64:64-i128:128-f80:128-n8:16:32:64-S128"
target triple = "x86_64-pc-linux-gnu"

%"class.cv::wechat_qrcode::ImgSource" = type { %"class.zxing::LuminanceSource.base", %"class.zxing::ArrayRef", ptr, ptr, i32, i32, i32, i32 }
%"class.zxing::LuminanceSource.base" = type { %"class.zxing::Counted.base", i32, i32 }
%"class.zxing::Counted.base" = type <{ ptr, i32 }>
%"class.zxing::ArrayRef" = type { %"class.zxing::Counted.base", ptr }
%"class.zxing::Counted" = type <{ ptr, i32, [4 x i8] }>

@_ZTVN5zxing8ArrayRefIcEE = linkonce_odr hidden unnamed_addr constant { [4 x ptr] } { [4 x ptr] [ptr null, ptr @_ZTIN5zxing8ArrayRefIcEE, ptr @_ZN5zxing8ArrayRefIcED2Ev, ptr @_ZN5zxing8ArrayRefIcED0Ev] }, comdat, align 8
@_ZTVN5zxing7CountedE = linkonce_odr hidden unnamed_addr constant { [4 x ptr] } { [4 x ptr] [ptr null, ptr @_ZTIN5zxing7CountedE, ptr @_ZN5zxing7CountedD2Ev, ptr @_ZN5zxing7CountedD0Ev] }, comdat, align 8

; Function Attrs: noreturn nounwind uwtable
define linkonce_odr hidden void @__clang_call_terminate(ptr noundef %0) #8 comdat {
  %2 = call ptr @__cxa_begin_catch(ptr %0) #11
  call void @_ZSt9terminatev() #12
  unreachable
}

; Function Attrs: mustprogress nounwind uwtable
define linkonce_odr hidden void @_ZN5zxing7CountedD2Ev(ptr noundef nonnull align 8 dereferenceable(12) %0) unnamed_addr #4 comdat align 2 {
  %2 = alloca ptr, align 8
  store ptr %0, ptr %2, align 8
  ret void
}

; Function Attrs: mustprogress nounwind uwtable
define linkonce_odr hidden void @_ZN5zxing7Counted7releaseEv(ptr noundef nonnull align 8 dereferenceable(12) %0) #4 comdat align 2 {
  %2 = alloca ptr, align 8
  store ptr %0, ptr %2, align 8
  %3 = load ptr, ptr %2, align 8
  %4 = getelementptr inbounds %"class.zxing::Counted", ptr %3, i32 0, i32 1
  %5 = load i32, ptr %4, align 8
  %6 = add i32 %5, -1
  store i32 %6, ptr %4, align 8
  %7 = getelementptr inbounds %"class.zxing::Counted", ptr %3, i32 0, i32 1
  %8 = load i32, ptr %7, align 8
  %9 = icmp eq i32 %8, 0
  br i1 %9, label %10, label %18

10:                                               ; preds = %1
  %11 = getelementptr inbounds %"class.zxing::Counted", ptr %3, i32 0, i32 1
  store i32 -559026175, ptr %11, align 8
  %12 = icmp eq ptr %3, null
  br i1 %12, label %17, label %13

13:                                               ; preds = %10
  %14 = load ptr, ptr %3, align 8
  %15 = getelementptr inbounds ptr, ptr %14, i64 1
  %16 = load ptr, ptr %15, align 8
  call void %16(ptr noundef nonnull align 8 dereferenceable(12) %3) #11
  br label %17

17:                                               ; preds = %13, %10
  br label %18

18:                                               ; preds = %17, %1
  ret void
}

; Function Attrs: mustprogress nounwind uwtable
define linkonce_odr hidden void @_ZN5zxing7CountedC2Ev(ptr noundef nonnull align 8 dereferenceable(12) %0) unnamed_addr #4 comdat align 2 {
  %2 = alloca ptr, align 8
  store ptr %0, ptr %2, align 8
  %3 = load ptr, ptr %2, align 8
  store ptr getelementptr inbounds inrange(-16, 16) ({ [4 x ptr] }, ptr @_ZTVN5zxing7CountedE, i32 0, i32 0, i32 2), ptr %3, align 8
  %4 = getelementptr inbounds %"class.zxing::Counted", ptr %3, i32 0, i32 1
  store i32 0, ptr %4, align 8
  ret void
}

; Function Attrs: mustprogress nounwind uwtable
define linkonce_odr hidden void @_ZN5zxing8ArrayRefIcED2Ev(ptr noundef nonnull align 8 dereferenceable(24) %0) unnamed_addr #4 comdat align 2 personality ptr @__gxx_personality_v0 {
  %2 = alloca ptr, align 8
  store ptr %0, ptr %2, align 8
  %3 = load ptr, ptr %2, align 8
  store ptr getelementptr inbounds inrange(-16, 16) ({ [4 x ptr] }, ptr @_ZTVN5zxing8ArrayRefIcEE, i32 0, i32 0, i32 2), ptr %3, align 8
  %4 = getelementptr inbounds %"class.zxing::ArrayRef", ptr %3, i32 0, i32 1
  %5 = load ptr, ptr %4, align 8
  %6 = icmp ne ptr %5, null
  br i1 %6, label %7, label %11

7:                                                ; preds = %1
  %8 = getelementptr inbounds %"class.zxing::ArrayRef", ptr %3, i32 0, i32 1
  %9 = load ptr, ptr %8, align 8
  invoke void @_ZN5zxing7Counted7releaseEv(ptr noundef nonnull align 8 dereferenceable(12) %9)
          to label %10 unwind label %13

10:                                               ; preds = %7
  br label %11

11:                                               ; preds = %10, %1
  %12 = getelementptr inbounds %"class.zxing::ArrayRef", ptr %3, i32 0, i32 1
  store ptr null, ptr %12, align 8
  call void @_ZN5zxing7CountedD2Ev(ptr noundef nonnull align 8 dereferenceable(12) %3) #11
  ret void

13:                                               ; preds = %7
  %14 = landingpad { ptr, i32 }
          catch ptr null
  %15 = extractvalue { ptr, i32 } %14, 0
  call void @__clang_call_terminate(ptr %15) #12
  unreachable
}

; Function Attrs: mustprogress uwtable
define linkonce_odr hidden void @_ZN5zxing8ArrayRefIcEC2Ev(ptr noundef nonnull align 8 dereferenceable(24) %0) unnamed_addr #0 comdat align 2 {
  %2 = alloca ptr, align 8
  store ptr %0, ptr %2, align 8
  %3 = load ptr, ptr %2, align 8
  call void @_ZN5zxing7CountedC2Ev(ptr noundef nonnull align 8 dereferenceable(12) %3)
  store ptr getelementptr inbounds inrange(-16, 16) ({ [4 x ptr] }, ptr @_ZTVN5zxing8ArrayRefIcEE, i32 0, i32 0, i32 2), ptr %3, align 8
  %4 = getelementptr inbounds %"class.zxing::ArrayRef", ptr %3, i32 0, i32 1
  store ptr null, ptr %4, align 8
  ret void
}

; Function Attrs: mustprogress uwtable
define hidden void @_ZN2cv13wechat_qrcode9ImgSourceC2EPhii(ptr noundef nonnull align 8 dereferenceable(80) %0, ptr noundef %1, i32 noundef %2, i32 noundef %3) unnamed_addr #0 align 2 personality ptr @__gxx_personality_v0 {
  %5 = alloca ptr, align 8
  %6 = alloca ptr, align 8
  %7 = alloca i32, align 4
  %8 = alloca i32, align 4
  %9 = alloca ptr, align 8
  %10 = alloca i32, align 4
  store ptr %0, ptr %5, align 8
  store ptr %1, ptr %6, align 8
  store i32 %2, ptr %7, align 4
  store i32 %3, ptr %8, align 4
  %11 = load ptr, ptr %5, align 8
  %12 = load i32, ptr %7, align 4
  %13 = load i32, ptr %8, align 4
  call void @_ZN5zxing15LuminanceSourceC2Eii(ptr noundef nonnull align 8 dereferenceable(20) %11, i32 noundef %12, i32 noundef %13)
  store ptr getelementptr inbounds inrange(-16, 72) ({ [11 x ptr] }, ptr @_ZTVN2cv13wechat_qrcode9ImgSourceE, i32 0, i32 0, i32 2), ptr %11, align 8
  %14 = getelementptr inbounds %"class.cv::wechat_qrcode::ImgSource", ptr %11, i32 0, i32 1
  invoke void @_ZN5zxing8ArrayRefIcEC2Ev(ptr noundef nonnull align 8 dereferenceable(24) %14)
          to label %15 unwind label %40

15:                                               ; preds = %4
  %16 = load i32, ptr %7, align 4
  %17 = load i32, ptr %8, align 4
  %18 = mul nsw i32 %16, %17
  %19 = sext i32 %18 to i64
  %20 = icmp slt i64 %19, 0
  %21 = select i1 %20, i64 -1, i64 %19
  %22 = invoke noalias noundef nonnull ptr @_Znam(i64 noundef %21) #10
          to label %23 unwind label %44

23:                                               ; preds = %15
  %24 = getelementptr inbounds %"class.cv::wechat_qrcode::ImgSource", ptr %11, i32 0, i32 3
  store ptr %22, ptr %24, align 8
  %25 = getelementptr inbounds %"class.cv::wechat_qrcode::ImgSource", ptr %11, i32 0, i32 3
  %26 = load ptr, ptr %25, align 8
  %27 = load i32, ptr %7, align 4
  %28 = load i32, ptr %8, align 4
  %29 = mul nsw i32 %27, %28
  %30 = sext i32 %29 to i64
  call void @llvm.memset.p0.i64(ptr align 1 %26, i8 0, i64 %30, i1 false)
  %31 = load ptr, ptr %6, align 8
  %32 = getelementptr inbounds %"class.cv::wechat_qrcode::ImgSource", ptr %11, i32 0, i32 2
  store ptr %31, ptr %32, align 8
  %33 = load i32, ptr %7, align 4
  %34 = getelementptr inbounds %"class.cv::wechat_qrcode::ImgSource", ptr %11, i32 0, i32 4
  store i32 %33, ptr %34, align 8
  %35 = load i32, ptr %8, align 4
  %36 = getelementptr inbounds %"class.cv::wechat_qrcode::ImgSource", ptr %11, i32 0, i32 5
  store i32 %35, ptr %36, align 4
  %37 = getelementptr inbounds %"class.cv::wechat_qrcode::ImgSource", ptr %11, i32 0, i32 6
  store i32 0, ptr %37, align 8
  %38 = getelementptr inbounds %"class.cv::wechat_qrcode::ImgSource", ptr %11, i32 0, i32 7
  store i32 0, ptr %38, align 4
  invoke void @_ZN2cv13wechat_qrcode9ImgSource8makeGrayEv(ptr noundef nonnull align 8 dereferenceable(80) %11)
          to label %39 unwind label %44

39:                                               ; preds = %23
  ret void

40:                                               ; preds = %4
  %41 = landingpad { ptr, i32 }
          cleanup
  %42 = extractvalue { ptr, i32 } %41, 0
  store ptr %42, ptr %9, align 8
  %43 = extractvalue { ptr, i32 } %41, 1
  store i32 %43, ptr %10, align 4
  br label %48

44:                                               ; preds = %23, %15
  %45 = landingpad { ptr, i32 }
          cleanup
  %46 = extractvalue { ptr, i32 } %45, 0
  store ptr %46, ptr %9, align 8
  %47 = extractvalue { ptr, i32 } %45, 1
  store i32 %47, ptr %10, align 4
  call void @_ZN5zxing8ArrayRefIcED2Ev(ptr noundef nonnull align 8 dereferenceable(24) %14) #11
  br label %48

48:                                               ; preds = %44, %40
  call void @_ZN5zxing15LuminanceSourceD2Ev(ptr noundef nonnull align 8 dereferenceable(20) %11) #11
  br label %49

49:                                               ; preds = %48
  %50 = load ptr, ptr %9, align 8
  %51 = load i32, ptr %10, align 4
  %52 = insertvalue { ptr, i32 } poison, ptr %50, 0
  %53 = insertvalue { ptr, i32 } %52, i32 %51, 1
  resume { ptr, i32 } %53
}