; Function Attrs: mustprogress uwtable
define hidden void @_ZN2cv13wechat_qrcode9ImgSourceC2EPhii(ptr noundef nonnull align 8 dereferenceable(80) %0, ptr noundef %1, i32 noundef %2, i32 noundef %3) unnamed_addr #0 align 2 personality ptr @__gxx_personality_v0 {
  tail call void @_ZN5zxing15LuminanceSourceC2Eii(ptr noundef nonnull align 8 dereferenceable(20) %0, i32 noundef %2, i32 noundef %3)
  store ptr getelementptr inbounds nuw inrange(-16, 72) (i8, ptr @_ZTVN2cv13wechat_qrcode9ImgSourceE, i64 16), ptr %0, align 8
  %5 = getelementptr inbounds nuw i8, ptr %0, i64 24
  %6 = getelementptr inbounds nuw i8, ptr %0, i64 32
  store i32 0, ptr %6, align 8
  store ptr getelementptr inbounds nuw inrange(-16, 16) (i8, ptr @_ZTVN5zxing8ArrayRefIcEE, i64 16), ptr %5, align 8
  %7 = getelementptr inbounds nuw i8, ptr %0, i64 40
  store ptr null, ptr %7, align 8
  %8 = mul nsw i32 %3, %2
  %9 = sext i32 %8 to i64
  %10 = icmp slt i32 %8, 0
  %11 = select i1 %10, i64 -1, i64 %9
  %12 = invoke noalias noundef nonnull ptr @_Znam(i64 noundef %11) #14
          to label %13 unwind label %21

13:                                               ; preds = %4
  %14 = getelementptr inbounds nuw i8, ptr %0, i64 56
  store ptr %12, ptr %14, align 8
  tail call void @llvm.memset.p0.i64(ptr nonnull align 1 %12, i8 0, i64 %9, i1 false)
  %15 = getelementptr inbounds nuw i8, ptr %0, i64 48
  store ptr %1, ptr %15, align 8
  %16 = getelementptr inbounds nuw i8, ptr %0, i64 64
  store i32 %2, ptr %16, align 8
  %17 = getelementptr inbounds nuw i8, ptr %0, i64 68
  store i32 %3, ptr %17, align 4
  %18 = getelementptr inbounds nuw i8, ptr %0, i64 72
  store i32 0, ptr %18, align 8
  %19 = getelementptr inbounds nuw i8, ptr %0, i64 76
  store i32 0, ptr %19, align 4
  invoke void @_ZN2cv13wechat_qrcode9ImgSource8makeGrayEv(ptr noundef nonnull align 8 dereferenceable(80) %0)
          to label %20 unwind label %21

20:                                               ; preds = %13
  ret void

21:                                               ; preds = %13, %4
  %22 = landingpad { ptr, i32 }
          cleanup
  store ptr getelementptr inbounds nuw inrange(-16, 16) (i8, ptr @_ZTVN5zxing8ArrayRefIcEE, i64 16), ptr %5, align 8
  %23 = load ptr, ptr %7, align 8
  %.not.i = icmp eq ptr %23, null
  br i1 %.not.i, label %_ZN5zxing8ArrayRefIcED2Ev.exit, label %24

24:                                               ; preds = %21
  %25 = getelementptr inbounds nuw i8, ptr %23, i64 8
  %26 = load i32, ptr %25, align 8
  %27 = add i32 %26, -1
  store i32 %27, ptr %25, align 8
  %28 = icmp eq i32 %27, 0
  br i1 %28, label %29, label %_ZN5zxing8ArrayRefIcED2Ev.exit

29:                                               ; preds = %24
  store i32 -559026175, ptr %25, align 8
  %30 = load ptr, ptr %23, align 8
  %31 = getelementptr inbounds nuw i8, ptr %30, i64 8
  %32 = load ptr, ptr %31, align 8
  tail call void %32(ptr noundef nonnull align 8 dereferenceable(12) %23) #15
  br label %_ZN5zxing8ArrayRefIcED2Ev.exit

_ZN5zxing8ArrayRefIcED2Ev.exit:                   ; preds = %21, %24, %29
  store ptr null, ptr %7, align 8
  tail call void @_ZN5zxing15LuminanceSourceD2Ev(ptr noundef nonnull align 8 dereferenceable(20) %0) #15
  resume { ptr, i32 } %22
}